target datalayout = "e-m:e-p270:32:32-p271:32:32-p272:64:64-i64:64-i128:128-f80:128-n8:16:32:64-S128"
target triple = "x86_64-pc-linux-gnu"

; Function Attrs: nounwind uwtable
define internal i32 @clamp(i32 noundef %0, i32 noundef %1, i32 noundef %2) #0 {
  %4 = alloca i32, align 4
  %5 = alloca i32, align 4
  %6 = alloca i32, align 4
  store i32 %0, ptr %4, align 4
  store i32 %1, ptr %5, align 4
  store i32 %2, ptr %6, align 4
  %7 = load i32, ptr %4, align 4
  %8 = load i32, ptr %5, align 4
  %9 = icmp slt i32 %7, %8
  br i1 %9, label %10, label %12

10:                                               ; preds = %3
  %11 = load i32, ptr %5, align 4
  br label %22

12:                                               ; preds = %3
  %13 = load i32, ptr %4, align 4
  %14 = load i32, ptr %6, align 4
  %15 = icmp sgt i32 %13, %14
  br i1 %15, label %16, label %18

16:                                               ; preds = %12
  %17 = load i32, ptr %6, align 4
  br label %20

18:                                               ; preds = %12
  %19 = load i32, ptr %4, align 4
  br label %20

20:                                               ; preds = %18, %16
  %21 = phi i32 [ %17, %16 ], [ %19, %18 ]
  br label %22

22:                                               ; preds = %20, %10
  %23 = phi i32 [ %11, %10 ], [ %21, %20 ]
  ret i32 %23
}

; Function Attrs: nounwind uwtable
define internal zeroext i16 @clip_pixel_highbd(i32 noundef %0, i32 noundef %1) #0 {
  %3 = alloca i16, align 2
  %4 = alloca i32, align 4
  %5 = alloca i32, align 4
  store i32 %0, ptr %4, align 4
  store i32 %1, ptr %5, align 4
  %6 = load i32, ptr %5, align 4
  switch i32 %6, label %8 [
    i32 8, label %7
    i32 10, label %12
    i32 12, label %16
  ]

7:                                                ; preds = %2
  br label %8

8:                                                ; preds = %7, %2
  %9 = load i32, ptr %4, align 4
  %10 = call i32 @clamp(i32 noundef %9, i32 noundef 0, i32 noundef 255)
  %11 = trunc i32 %10 to i16
  store i16 %11, ptr %3, align 2
  br label %20

12:                                               ; preds = %2
  %13 = load i32, ptr %4, align 4
  %14 = call i32 @clamp(i32 noundef %13, i32 noundef 0, i32 noundef 1023)
  %15 = trunc i32 %14 to i16
  store i16 %15, ptr %3, align 2
  br label %20

16:                                               ; preds = %2
  %17 = load i32, ptr %4, align 4
  %18 = call i32 @clamp(i32 noundef %17, i32 noundef 0, i32 noundef 4095)
  %19 = trunc i32 %18 to i16
  store i16 %19, ptr %3, align 2
  br label %20

20:                                               ; preds = %16, %12, %8
  %21 = load i16, ptr %3, align 2
  ret i16 %21
}

; Function Attrs: nounwind uwtable
define internal zeroext i16 @highbd_clip_pixel_add(i16 noundef zeroext %0, i64 noundef %1, i32 noundef %2) #0 {
  %4 = alloca i16, align 2
  %5 = alloca i64, align 8
  %6 = alloca i32, align 4
  store i16 %0, ptr %4, align 2
  store i64 %1, ptr %5, align 8
  store i32 %2, ptr %6, align 4
  %7 = load i16, ptr %4, align 2
  %8 = zext i16 %7 to i32
  %9 = load i64, ptr %5, align 8
  %10 = trunc i64 %9 to i32
  %11 = add nsw i32 %8, %10
  %12 = load i32, ptr %6, align 4
  %13 = call zeroext i16 @clip_pixel_highbd(i32 noundef %11, i32 noundef %12)
  ret i16 %13
}

; Function Attrs: nounwind uwtable
define internal i32 @range_check_value(i32 noundef %0, i8 noundef signext %1) #0 {
  %3 = alloca i32, align 4
  %4 = alloca i8, align 1
  store i32 %0, ptr %3, align 4
  store i8 %1, ptr %4, align 1
  %5 = load i32, ptr %3, align 4
  ret i32 %5
}

; Function Attrs: nounwind uwtable
define hidden void @av1_highbd_iwht4x4_16_add_c(ptr noundef %0, ptr noundef %1, i32 noundef %2, i32 noundef %3) #0 {
  %5 = alloca ptr, align 8
  %6 = alloca ptr, align 8
  %7 = alloca i32, align 4
  %8 = alloca i32, align 4
  %9 = alloca i32, align 4
  %10 = alloca [16 x i32], align 16
  %11 = alloca i32, align 4
  %12 = alloca i32, align 4
  %13 = alloca i32, align 4
  %14 = alloca i32, align 4
  %15 = alloca i32, align 4
  %16 = alloca ptr, align 8
  %17 = alloca ptr, align 8
  %18 = alloca ptr, align 8
  store ptr %0, ptr %5, align 8
  store ptr %1, ptr %6, align 8
  store i32 %2, ptr %7, align 4
  store i32 %3, ptr %8, align 4
  %19 = load ptr, ptr %5, align 8
  store ptr %19, ptr %16, align 8
  %20 = getelementptr inbounds [16 x i32], ptr %10, i64 0, i64 0
  store ptr %20, ptr %17, align 8
  %21 = load ptr, ptr %6, align 8
  %22 = ptrtoint ptr %21 to i64
  %23 = shl i64 %22, 1
  %24 = inttoptr i64 %23 to ptr
  store ptr %24, ptr %18, align 8
  store i32 0, ptr %9, align 4
  br label %25

25:                                               ; preds = %83, %4
  %26 = load i32, ptr %9, align 4
  %27 = icmp slt i32 %26, 4
  br i1 %27, label %28, label %86

28:                                               ; preds = %25
  %29 = load ptr, ptr %16, align 8
  %30 = getelementptr inbounds i32, ptr %29, i64 0
  %31 = load i32, ptr %30, align 4
  %32 = ashr i32 %31, 2
  store i32 %32, ptr %11, align 4
  %33 = load ptr, ptr %16, align 8
  %34 = getelementptr inbounds i32, ptr %33, i64 1
  %35 = load i32, ptr %34, align 4
  %36 = ashr i32 %35, 2
  store i32 %36, ptr %13, align 4
  %37 = load ptr, ptr %16, align 8
  %38 = getelementptr inbounds i32, ptr %37, i64 2
  %39 = load i32, ptr %38, align 4
  %40 = ashr i32 %39, 2
  store i32 %40, ptr %14, align 4
  %41 = load ptr, ptr %16, align 8
  %42 = getelementptr inbounds i32, ptr %41, i64 3
  %43 = load i32, ptr %42, align 4
  %44 = ashr i32 %43, 2
  store i32 %44, ptr %12, align 4
  %45 = load i32, ptr %13, align 4
  %46 = load i32, ptr %11, align 4
  %47 = add nsw i32 %46, %45
  store i32 %47, ptr %11, align 4
  %48 = load i32, ptr %12, align 4
  %49 = load i32, ptr %14, align 4
  %50 = sub nsw i32 %49, %48
  store i32 %50, ptr %14, align 4
  %51 = load i32, ptr %11, align 4
  %52 = load i32, ptr %14, align 4
  %53 = sub nsw i32 %51, %52
  %54 = ashr i32 %53, 1
  store i32 %54, ptr %15, align 4
  %55 = load i32, ptr %15, align 4
  %56 = load i32, ptr %12, align 4
  %57 = sub nsw i32 %55, %56
  store i32 %57, ptr %12, align 4
  %58 = load i32, ptr %15, align 4
  %59 = load i32, ptr %13, align 4
  %60 = sub nsw i32 %58, %59
  store i32 %60, ptr %13, align 4
  %61 = load i32, ptr %12, align 4
  %62 = load i32, ptr %11, align 4
  %63 = sub nsw i32 %62, %61
  store i32 %63, ptr %11, align 4
  %64 = load i32, ptr %13, align 4
  %65 = load i32, ptr %14, align 4
  %66 = add nsw i32 %65, %64
  store i32 %66, ptr %14, align 4
  %67 = load i32, ptr %11, align 4
  %68 = load ptr, ptr %17, align 8
  %69 = getelementptr inbounds i32, ptr %68, i64 0
  store i32 %67, ptr %69, align 4
  %70 = load i32, ptr %12, align 4
  %71 = load ptr, ptr %17, align 8
  %72 = getelementptr inbounds i32, ptr %71, i64 1
  store i32 %70, ptr %72, align 4
  %73 = load i32, ptr %13, align 4
  %74 = load ptr, ptr %17, align 8
  %75 = getelementptr inbounds i32, ptr %74, i64 2
  store i32 %73, ptr %75, align 4
  %76 = load i32, ptr %14, align 4
  %77 = load ptr, ptr %17, align 8
  %78 = getelementptr inbounds i32, ptr %77, i64 3
  store i32 %76, ptr %78, align 4
  %79 = load ptr, ptr %16, align 8
  %80 = getelementptr inbounds i32, ptr %79, i64 4
  store ptr %80, ptr %16, align 8
  %81 = load ptr, ptr %17, align 8
  %82 = getelementptr inbounds i32, ptr %81, i64 4
  store ptr %82, ptr %17, align 8
  br label %83

83:                                               ; preds = %28
  %84 = load i32, ptr %9, align 4
  %85 = add nsw i32 %84, 1
  store i32 %85, ptr %9, align 4
  br label %25, !llvm.loop !4

86:                                               ; preds = %25
  %87 = getelementptr inbounds [16 x i32], ptr %10, i64 0, i64 0
  store ptr %87, ptr %16, align 8
  store i32 0, ptr %9, align 4
  br label %88

88:                                               ; preds = %210, %86
  %89 = load i32, ptr %9, align 4
  %90 = icmp slt i32 %89, 4
  br i1 %90, label %91, label %213

91:                                               ; preds = %88
  %92 = load ptr, ptr %16, align 8
  %93 = getelementptr inbounds i32, ptr %92, i64 0
  %94 = load i32, ptr %93, align 4
  store i32 %94, ptr %11, align 4
  %95 = load ptr, ptr %16, align 8
  %96 = getelementptr inbounds i32, ptr %95, i64 4
  %97 = load i32, ptr %96, align 4
  store i32 %97, ptr %13, align 4
  %98 = load ptr, ptr %16, align 8
  %99 = getelementptr inbounds i32, ptr %98, i64 8
  %100 = load i32, ptr %99, align 4
  store i32 %100, ptr %14, align 4
  %101 = load ptr, ptr %16, align 8
  %102 = getelementptr inbounds i32, ptr %101, i64 12
  %103 = load i32, ptr %102, align 4
  store i32 %103, ptr %12, align 4
  %104 = load i32, ptr %13, align 4
  %105 = load i32, ptr %11, align 4
  %106 = add nsw i32 %105, %104
  store i32 %106, ptr %11, align 4
  %107 = load i32, ptr %12, align 4
  %108 = load i32, ptr %14, align 4
  %109 = sub nsw i32 %108, %107
  store i32 %109, ptr %14, align 4
  %110 = load i32, ptr %11, align 4
  %111 = load i32, ptr %14, align 4
  %112 = sub nsw i32 %110, %111
  %113 = ashr i32 %112, 1
  store i32 %113, ptr %15, align 4
  %114 = load i32, ptr %15, align 4
  %115 = load i32, ptr %12, align 4
  %116 = sub nsw i32 %114, %115
  store i32 %116, ptr %12, align 4
  %117 = load i32, ptr %15, align 4
  %118 = load i32, ptr %13, align 4
  %119 = sub nsw i32 %117, %118
  store i32 %119, ptr %13, align 4
  %120 = load i32, ptr %12, align 4
  %121 = load i32, ptr %11, align 4
  %122 = sub nsw i32 %121, %120
  store i32 %122, ptr %11, align 4
  %123 = load i32, ptr %13, align 4
  %124 = load i32, ptr %14, align 4
  %125 = add nsw i32 %124, %123
  store i32 %125, ptr %14, align 4
  %126 = load i32, ptr %11, align 4
  %127 = load i32, ptr %8, align 4
  %128 = add nsw i32 %127, 1
  %129 = trunc i32 %128 to i8
  %130 = call i32 @range_check_value(i32 noundef %126, i8 noundef signext %129)
  %131 = load i32, ptr %12, align 4
  %132 = load i32, ptr %8, align 4
  %133 = add nsw i32 %132, 1
  %134 = trunc i32 %133 to i8
  %135 = call i32 @range_check_value(i32 noundef %131, i8 noundef signext %134)
  %136 = load i32, ptr %13, align 4
  %137 = load i32, ptr %8, align 4
  %138 = add nsw i32 %137, 1
  %139 = trunc i32 %138 to i8
  %140 = call i32 @range_check_value(i32 noundef %136, i8 noundef signext %139)
  %141 = load i32, ptr %14, align 4
  %142 = load i32, ptr %8, align 4
  %143 = add nsw i32 %142, 1
  %144 = trunc i32 %143 to i8
  %145 = call i32 @range_check_value(i32 noundef %141, i8 noundef signext %144)
  %146 = load ptr, ptr %18, align 8
  %147 = load i32, ptr %7, align 4
  %148 = mul nsw i32 %147, 0
  %149 = sext i32 %148 to i64
  %150 = getelementptr inbounds i16, ptr %146, i64 %149
  %151 = load i16, ptr %150, align 2
  %152 = load i32, ptr %11, align 4
  %153 = sext i32 %152 to i64
  %154 = load i32, ptr %8, align 4
  %155 = call zeroext i16 @highbd_clip_pixel_add(i16 noundef zeroext %151, i64 noundef %153, i32 noundef %154)
  %156 = load ptr, ptr %18, align 8
  %157 = load i32, ptr %7, align 4
  %158 = mul nsw i32 %157, 0
  %159 = sext i32 %158 to i64
  %160 = getelementptr inbounds i16, ptr %156, i64 %159
  store i16 %155, ptr %160, align 2
  %161 = load ptr, ptr %18, align 8
  %162 = load i32, ptr %7, align 4
  %163 = mul nsw i32 %162, 1
  %164 = sext i32 %163 to i64
  %165 = getelementptr inbounds i16, ptr %161, i64 %164
  %166 = load i16, ptr %165, align 2
  %167 = load i32, ptr %12, align 4
  %168 = sext i32 %167 to i64
  %169 = load i32, ptr %8, align 4
  %170 = call zeroext i16 @highbd_clip_pixel_add(i16 noundef zeroext %166, i64 noundef %168, i32 noundef %169)
  %171 = load ptr, ptr %18, align 8
  %172 = load i32, ptr %7, align 4
  %173 = mul nsw i32 %172, 1
  %174 = sext i32 %173 to i64
  %175 = getelementptr inbounds i16, ptr %171, i64 %174
  store i16 %170, ptr %175, align 2
  %176 = load ptr, ptr %18, align 8
  %177 = load i32, ptr %7, align 4
  %178 = mul nsw i32 %177, 2
  %179 = sext i32 %178 to i64
  %180 = getelementptr inbounds i16, ptr %176, i64 %179
  %181 = load i16, ptr %180, align 2
  %182 = load i32, ptr %13, align 4
  %183 = sext i32 %182 to i64
  %184 = load i32, ptr %8, align 4
  %185 = call zeroext i16 @highbd_clip_pixel_add(i16 noundef zeroext %181, i64 noundef %183, i32 noundef %184)
  %186 = load ptr, ptr %18, align 8
  %187 = load i32, ptr %7, align 4
  %188 = mul nsw i32 %187, 2
  %189 = sext i32 %188 to i64
  %190 = getelementptr inbounds i16, ptr %186, i64 %189
  store i16 %185, ptr %190, align 2
  %191 = load ptr, ptr %18, align 8
  %192 = load i32, ptr %7, align 4
  %193 = mul nsw i32 %192, 3
  %194 = sext i32 %193 to i64
  %195 = getelementptr inbounds i16, ptr %191, i64 %194
  %196 = load i16, ptr %195, align 2
  %197 = load i32, ptr %14, align 4
  %198 = sext i32 %197 to i64
  %199 = load i32, ptr %8, align 4
  %200 = call zeroext i16 @highbd_clip_pixel_add(i16 noundef zeroext %196, i64 noundef %198, i32 noundef %199)
  %201 = load ptr, ptr %18, align 8
  %202 = load i32, ptr %7, align 4
  %203 = mul nsw i32 %202, 3
  %204 = sext i32 %203 to i64
  %205 = getelementptr inbounds i16, ptr %201, i64 %204
  store i16 %200, ptr %205, align 2
  %206 = load ptr, ptr %16, align 8
  %207 = getelementptr inbounds i32, ptr %206, i32 1
  store ptr %207, ptr %16, align 8
  %208 = load ptr, ptr %18, align 8
  %209 = getelementptr inbounds i16, ptr %208, i32 1
  store ptr %209, ptr %18, align 8
  br label %210

210:                                              ; preds = %91
  %211 = load i32, ptr %9, align 4
  %212 = add nsw i32 %211, 1
  store i32 %212, ptr %9, align 4
  br label %88, !llvm.loop !6

213:                                              ; preds = %88
  ret void
}