; Function Attrs: nofree norecurse nosync nounwind memory(readwrite, inaccessiblemem: none) uwtable
define hidden void @av1_highbd_iwht4x4_16_add_c(ptr noundef readonly captures(none) %0, ptr noundef %1, i32 noundef %2, i32 noundef %3) local_unnamed_addr #0 {
  %5 = alloca [16 x i32], align 16
  %6 = ptrtoint ptr %1 to i64
  %7 = shl i64 %6, 1
  br label %104

.preheader:                                       ; preds = %104
  %8 = inttoptr i64 %7 to ptr
  %9 = sext i32 %2 to i64
  %10 = shl nsw i32 %2, 1
  %11 = sext i32 %10 to i64
  %12 = mul nsw i32 %2, 3
  %13 = sext i32 %12 to i64
  switch i32 %3, label %highbd_clip_pixel_add.exit [
    i32 12, label %highbd_clip_pixel_add.exit.thread.us
    i32 10, label %highbd_clip_pixel_add.exit.thread100.us
  ]

highbd_clip_pixel_add.exit.thread.us:             ; preds = %.preheader, %highbd_clip_pixel_add.exit.thread.us
  %.0120.us = phi ptr [ %57, %highbd_clip_pixel_add.exit.thread.us ], [ %8, %.preheader ]
  %.1119.us = phi ptr [ %56, %highbd_clip_pixel_add.exit.thread.us ], [ %5, %.preheader ]
  %.188118.us = phi i32 [ %58, %highbd_clip_pixel_add.exit.thread.us ], [ 0, %.preheader ]
  %14 = load i32, ptr %.1119.us, align 4
  %15 = getelementptr inbounds nuw i8, ptr %.1119.us, i64 16
  %16 = load i32, ptr %15, align 4
  %17 = getelementptr inbounds nuw i8, ptr %.1119.us, i64 32
  %18 = load i32, ptr %17, align 4
  %19 = getelementptr inbounds nuw i8, ptr %.1119.us, i64 48
  %20 = load i32, ptr %19, align 4
  %21 = add nsw i32 %16, %14
  %22 = sub nsw i32 %18, %20
  %23 = sub nsw i32 %21, %22
  %24 = ashr i32 %23, 1
  %25 = sub nsw i32 %24, %20
  %26 = sub nsw i32 %24, %16
  %27 = sub nsw i32 %21, %25
  %28 = add nsw i32 %26, %22
  %29 = load i16, ptr %.0120.us, align 2
  %30 = zext i16 %29 to i32
  %31 = add nsw i32 %27, %30
  %32 = tail call i32 @llvm.umin.i32(i32 %31, i32 4095)
  %33 = icmp slt i32 %31, 0
  %34 = trunc nuw nsw i32 %32 to i16
  %.0.i.i99.us = select i1 %33, i16 0, i16 %34
  store i16 %.0.i.i99.us, ptr %.0120.us, align 2
  %35 = getelementptr inbounds i16, ptr %.0120.us, i64 %9
  %36 = load i16, ptr %35, align 2
  %37 = zext i16 %36 to i32
  %38 = add nsw i32 %25, %37
  %39 = tail call i32 @llvm.umin.i32(i32 %38, i32 4095)
  %40 = icmp slt i32 %38, 0
  %41 = trunc nuw nsw i32 %39 to i16
  %.0.i.i90104.us = select i1 %40, i16 0, i16 %41
  store i16 %.0.i.i90104.us, ptr %35, align 2
  %42 = getelementptr inbounds i16, ptr %.0120.us, i64 %11
  %43 = load i16, ptr %42, align 2
  %44 = zext i16 %43 to i32
  %45 = add nsw i32 %26, %44
  %46 = tail call i32 @llvm.umin.i32(i32 %45, i32 4095)
  %47 = icmp slt i32 %45, 0
  %48 = trunc nuw nsw i32 %46 to i16
  %.0.i.i93109.us = select i1 %47, i16 0, i16 %48
  store i16 %.0.i.i93109.us, ptr %42, align 2
  %49 = getelementptr inbounds i16, ptr %.0120.us, i64 %13
  %50 = load i16, ptr %49, align 2
  %51 = zext i16 %50 to i32
  %52 = add nsw i32 %28, %51
  %53 = tail call i32 @llvm.umin.i32(i32 %52, i32 4095)
  %54 = icmp slt i32 %52, 0
  %55 = trunc nuw nsw i32 %53 to i16
  %.0.i.i96.us = select i1 %54, i16 0, i16 %55
  store i16 %.0.i.i96.us, ptr %49, align 2
  %56 = getelementptr inbounds nuw i8, ptr %.1119.us, i64 4
  %57 = getelementptr inbounds nuw i8, ptr %.0120.us, i64 2
  %58 = add nuw nsw i32 %.188118.us, 1
  %exitcond131.not = icmp eq i32 %58, 4
  br i1 %exitcond131.not, label %.split.us, label %highbd_clip_pixel_add.exit.thread.us, !llvm.loop !4

highbd_clip_pixel_add.exit.thread100.us:          ; preds = %.preheader, %highbd_clip_pixel_add.exit.thread100.us
  %.0120.us122 = phi ptr [ %102, %highbd_clip_pixel_add.exit.thread100.us ], [ %8, %.preheader ]
  %.1119.us123 = phi ptr [ %101, %highbd_clip_pixel_add.exit.thread100.us ], [ %5, %.preheader ]
  %.188118.us124 = phi i32 [ %103, %highbd_clip_pixel_add.exit.thread100.us ], [ 0, %.preheader ]
  %59 = load i32, ptr %.1119.us123, align 4
  %60 = getelementptr inbounds nuw i8, ptr %.1119.us123, i64 16
  %61 = load i32, ptr %60, align 4
  %62 = getelementptr inbounds nuw i8, ptr %.1119.us123, i64 32
  %63 = load i32, ptr %62, align 4
  %64 = getelementptr inbounds nuw i8, ptr %.1119.us123, i64 48
  %65 = load i32, ptr %64, align 4
  %66 = add nsw i32 %61, %59
  %67 = sub nsw i32 %63, %65
  %68 = sub nsw i32 %66, %67
  %69 = ashr i32 %68, 1
  %70 = sub nsw i32 %69, %65
  %71 = sub nsw i32 %69, %61
  %72 = sub nsw i32 %66, %70
  %73 = add nsw i32 %71, %67
  %74 = load i16, ptr %.0120.us122, align 2
  %75 = zext i16 %74 to i32
  %76 = add nsw i32 %72, %75
  %77 = tail call i32 @llvm.umin.i32(i32 %76, i32 1023)
  %78 = icmp slt i32 %76, 0
  %79 = trunc nuw nsw i32 %77 to i16
  %.0.i.i102.us = select i1 %78, i16 0, i16 %79
  store i16 %.0.i.i102.us, ptr %.0120.us122, align 2
  %80 = getelementptr inbounds i16, ptr %.0120.us122, i64 %9
  %81 = load i16, ptr %80, align 2
  %82 = zext i16 %81 to i32
  %83 = add nsw i32 %70, %82
  %84 = tail call i32 @llvm.umin.i32(i32 %83, i32 1023)
  %85 = icmp slt i32 %83, 0
  %86 = trunc nuw nsw i32 %84 to i16
  %.0.i.i90107.us = select i1 %85, i16 0, i16 %86
  store i16 %.0.i.i90107.us, ptr %80, align 2
  %87 = getelementptr inbounds i16, ptr %.0120.us122, i64 %11
  %88 = load i16, ptr %87, align 2
  %89 = zext i16 %88 to i32
  %90 = add nsw i32 %71, %89
  %91 = tail call i32 @llvm.umin.i32(i32 %90, i32 1023)
  %92 = icmp slt i32 %90, 0
  %93 = trunc nuw nsw i32 %91 to i16
  %.0.i.i93112.us = select i1 %92, i16 0, i16 %93
  store i16 %.0.i.i93112.us, ptr %87, align 2
  %94 = getelementptr inbounds i16, ptr %.0120.us122, i64 %13
  %95 = load i16, ptr %94, align 2
  %96 = zext i16 %95 to i32
  %97 = add nsw i32 %73, %96
  %98 = tail call i32 @llvm.umin.i32(i32 %97, i32 1023)
  %99 = icmp slt i32 %97, 0
  %100 = trunc nuw nsw i32 %98 to i16
  %.0.i.i96.us127 = select i1 %99, i16 0, i16 %100
  store i16 %.0.i.i96.us127, ptr %94, align 2
  %101 = getelementptr inbounds nuw i8, ptr %.1119.us123, i64 4
  %102 = getelementptr inbounds nuw i8, ptr %.0120.us122, i64 2
  %103 = add nuw nsw i32 %.188118.us124, 1
  %exitcond130.not = icmp eq i32 %103, 4
  br i1 %exitcond130.not, label %.split.us, label %highbd_clip_pixel_add.exit.thread100.us, !llvm.loop !4

104:                                              ; preds = %4, %104
  %.085117 = phi ptr [ %5, %4 ], [ %128, %104 ]
  %.086116 = phi ptr [ %0, %4 ], [ %127, %104 ]
  %.087115 = phi i32 [ 0, %4 ], [ %129, %104 ]
  %105 = load i32, ptr %.086116, align 4
  %106 = ashr i32 %105, 2
  %107 = getelementptr inbounds nuw i8, ptr %.086116, i64 4
  %108 = load i32, ptr %107, align 4
  %109 = ashr i32 %108, 2
  %110 = getelementptr inbounds nuw i8, ptr %.086116, i64 8
  %111 = load i32, ptr %110, align 4
  %112 = ashr i32 %111, 2
  %113 = getelementptr inbounds nuw i8, ptr %.086116, i64 12
  %114 = load i32, ptr %113, align 4
  %115 = ashr i32 %114, 2
  %116 = add nsw i32 %109, %106
  %117 = sub nsw i32 %112, %115
  %118 = sub nsw i32 %116, %117
  %119 = ashr i32 %118, 1
  %120 = sub nsw i32 %119, %115
  %121 = sub nsw i32 %119, %109
  %122 = sub nsw i32 %116, %120
  %123 = add nsw i32 %121, %117
  store i32 %122, ptr %.085117, align 4
  %124 = getelementptr inbounds nuw i8, ptr %.085117, i64 4
  store i32 %120, ptr %124, align 4
  %125 = getelementptr inbounds nuw i8, ptr %.085117, i64 8
  store i32 %121, ptr %125, align 4
  %126 = getelementptr inbounds nuw i8, ptr %.085117, i64 12
  store i32 %123, ptr %126, align 4
  %127 = getelementptr inbounds nuw i8, ptr %.086116, i64 16
  %128 = getelementptr inbounds nuw i8, ptr %.085117, i64 16
  %129 = add nuw nsw i32 %.087115, 1
  %exitcond.not = icmp eq i32 %129, 4
  br i1 %exitcond.not, label %.preheader, label %104, !llvm.loop !6

highbd_clip_pixel_add.exit:                       ; preds = %.preheader, %highbd_clip_pixel_add.exit
  %.0120 = phi ptr [ %173, %highbd_clip_pixel_add.exit ], [ %8, %.preheader ]
  %.1119 = phi ptr [ %172, %highbd_clip_pixel_add.exit ], [ %5, %.preheader ]
  %.188118 = phi i32 [ %174, %highbd_clip_pixel_add.exit ], [ 0, %.preheader ]
  %130 = load i32, ptr %.1119, align 4
  %131 = getelementptr inbounds nuw i8, ptr %.1119, i64 16
  %132 = load i32, ptr %131, align 4
  %133 = getelementptr inbounds nuw i8, ptr %.1119, i64 32
  %134 = load i32, ptr %133, align 4
  %135 = getelementptr inbounds nuw i8, ptr %.1119, i64 48
  %136 = load i32, ptr %135, align 4
  %137 = add nsw i32 %132, %130
  %138 = sub nsw i32 %134, %136
  %139 = sub nsw i32 %137, %138
  %140 = ashr i32 %139, 1
  %141 = sub nsw i32 %140, %136
  %142 = sub nsw i32 %140, %132
  %143 = sub nsw i32 %137, %141
  %144 = add nsw i32 %142, %138
  %145 = load i16, ptr %.0120, align 2
  %146 = zext i16 %145 to i32
  %147 = add nsw i32 %143, %146
  %148 = tail call i32 @llvm.umin.i32(i32 %147, i32 255)
  %149 = icmp slt i32 %147, 0
  %150 = trunc nuw nsw i32 %148 to i16
  %.0.i.i = select i1 %149, i16 0, i16 %150
  store i16 %.0.i.i, ptr %.0120, align 2
  %151 = getelementptr inbounds i16, ptr %.0120, i64 %9
  %152 = load i16, ptr %151, align 2
  %153 = zext i16 %152 to i32
  %154 = add nsw i32 %141, %153
  %155 = tail call i32 @llvm.umin.i32(i32 %154, i32 255)
  %156 = icmp slt i32 %154, 0
  %157 = trunc nuw nsw i32 %155 to i16
  %.0.i.i90 = select i1 %156, i16 0, i16 %157
  store i16 %.0.i.i90, ptr %151, align 2
  %158 = getelementptr inbounds i16, ptr %.0120, i64 %11
  %159 = load i16, ptr %158, align 2
  %160 = zext i16 %159 to i32
  %161 = add nsw i32 %142, %160
  %162 = tail call i32 @llvm.umin.i32(i32 %161, i32 255)
  %163 = icmp slt i32 %161, 0
  %164 = trunc nuw nsw i32 %162 to i16
  %.0.i.i93 = select i1 %163, i16 0, i16 %164
  store i16 %.0.i.i93, ptr %158, align 2
  %165 = getelementptr inbounds i16, ptr %.0120, i64 %13
  %166 = load i16, ptr %165, align 2
  %167 = zext i16 %166 to i32
  %168 = add nsw i32 %144, %167
  %169 = tail call i32 @llvm.umin.i32(i32 %168, i32 255)
  %170 = icmp slt i32 %168, 0
  %171 = trunc nuw nsw i32 %169 to i16
  %.0.i.i96 = select i1 %170, i16 0, i16 %171
  store i16 %.0.i.i96, ptr %165, align 2
  %172 = getelementptr inbounds nuw i8, ptr %.1119, i64 4
  %173 = getelementptr inbounds nuw i8, ptr %.0120, i64 2
  %174 = add nuw nsw i32 %.188118, 1
  %exitcond132.not = icmp eq i32 %174, 4
  br i1 %exitcond132.not, label %.split.us, label %highbd_clip_pixel_add.exit, !llvm.loop !4

.split.us:                                        ; preds = %highbd_clip_pixel_add.exit.thread100.us, %highbd_clip_pixel_add.exit.thread.us, %highbd_clip_pixel_add.exit
  ret void
}